Certificate:
    Data:
        Version: 3 (0x2)
        Serial Number: 7 (0x7)
    Signature Algorithm: sha256WithRSAEncryption
        Issuer: C=BR, ST=RJ, L=Rio, O=PUC, OU=INF1416, CN=AC INF1416/emailAddress=ca@grad.inf.puc-rio.br
        Validity
            Not Before: Apr 29 14:02:49 2022 GMT
            Not After : Apr 28 14:02:49 2025 GMT
        Subject: C=BR, ST=RJ, O=PUC, OU=INF1416, CN=Usuario 01/emailAddress=user01@inf1416.puc-rio.br
        Subject Public Key Info:
            Public Key Algorithm: rsaEncryption
                Public-Key: (2048 bit)
                Modulus:
                    00:bf:35:0d:19:f3:5c:89:9e:90:63:0a:9c:1d:cc:
                    bb:a1:87:b9:0b:a4:1e:2c:63:de:6f:58:31:1d:e3:
                    7f:67:e2:5e:5a:57:f9:fc:dd:b5:5d:07:97:69:68:
                    3c:22:2f:d7:eb:5d:08:8c:9e:0d:61:bf:3b:ff:a8:
                    00:e8:e5:a2:b5:1f:e1:fc:38:0e:01:06:ea:64:02:
                    fd:ab:b9:67:36:dd:b1:a8:5e:0f:05:b5:b7:5b:8b:
                    e6:f8:8a:e0:5e:74:d8:32:d5:27:61:97:60:bc:f2:
                    02:4f:5d:9c:9a:c5:4a:bc:ff:bb:2c:8a:7c:68:af:
                    86:73:14:b2:bb:4c:c8:7e:18:52:ac:c7:c9:87:74:
                    a6:49:64:83:a1:dd:7e:9e:8d:e8:c6:ff:e2:19:be:
                    19:b3:dd:b0:07:dd:94:dc:b1:ed:7f:f5:c9:ac:ea:
                    13:c1:9b:6f:a1:fd:16:b4:98:54:15:bb:58:ff:a1:
                    06:ff:ff:86:bc:71:72:ce:59:fa:58:70:5c:46:ff:
                    be:ff:a4:10:2d:69:5a:8f:21:3e:ff:7d:37:e5:e5:
                    01:54:d8:86:55:e7:af:2e:2e:ef:4f:46:4f:9e:9e:
                    14:f9:3a:a9:46:51:d6:55:fb:b4:d9:6a:ca:73:81:
                    47:57:eb:24:6e:5c:2b:c2:6d:fb:d3:fa:e3:b1:b0:
                    b6:13
                Exponent: 65537 (0x10001)
        X509v3 extensions:
            X509v3 Basic Constraints: 
                CA:FALSE
            Netscape Comment: 
                OpenSSL Generated Certificate
            X509v3 Subject Key Identifier: 
                E6:23:8E:9D:0F:20:F7:11:9B:0E:14:E2:37:1F:CF:E6:AF:5A:C5:D7
            X509v3 Authority Key Identifier: 
                keyid:23:81:3B:C3:19:2B:95:99:D9:CA:EA:3B:6B:FE:1C:24:73:C2:82:8E

    Signature Algorithm: sha256WithRSAEncryption
         3b:3f:39:4b:38:90:e5:3e:83:c3:d7:28:bd:44:76:8c:82:f7:
         9f:fe:b3:57:6a:9e:34:6e:82:ce:c5:c2:a2:4a:a9:76:8b:fc:
         b9:da:cb:6a:a6:ad:2e:1d:a6:3f:b6:e8:78:96:56:9c:a3:ba:
         06:f6:02:f7:be:cb:6c:e4:54:61:4a:26:77:a9:1b:9b:d9:9e:
         fe:24:e1:6e:92:d3:d7:fa:48:70:9f:77:25:d1:7e:7f:4f:03:
         6a:26:fb:e6:81:bf:d5:8e:b1:1d:8b:d3:a6:ae:d2:ec:41:49:
         92:a5:00:ac:6b:68:84:92:28:48:35:89:80:e6:c5:f5:a6:01:
         5d:0c:23:07:8c:bb:6d:bb:b9:c8:cf:37:2a:14:f4:12:b0:ef:
         e2:aa:6e:c9:76:ee:b9:31:73:8d:98:29:12:ed:55:c2:78:a4:
         de:78:38:b7:cc:0e:e0:e7:cf:2e:1d:57:00:b7:2e:76:30:95:
         d7:60:80:f5:00:24:db:31:2c:5b:29:27:8a:7a:cf:aa:5e:84:
         e1:51:bc:82:31:69:f6:a8:a6:de:0a:d8:57:96:b8:d7:67:63:
         cd:58:c3:0d:76:88:48:ca:9e:aa:c8:65:95:fb:14:96:40:79:
         29:dd:d1:90:de:ce:f7:b2:17:47:6b:9a:40:5b:26:71:96:cf:
         1e:1d:4b:2e
-----BEGIN CERTIFICATE-----
MIID9DCCAtygAwIBAgIBBzANBgkqhkiG9w0BAQsFADCBhDELMAkGA1UEBhMCQlIx
CzAJBgNVBAgMAlJKMQwwCgYDVQQHDANSaW8xDDAKBgNVBAoMA1BVQzEQMA4GA1UE
CwwHSU5GMTQxNjETMBEGA1UEAwwKQUMgSU5GMTQxNjElMCMGCSqGSIb3DQEJARYW
Y2FAZ3JhZC5pbmYucHVjLXJpby5icjAeFw0yMjA0MjkxNDAyNDlaFw0yNTA0Mjgx
NDAyNDlaMHkxCzAJBgNVBAYTAkJSMQswCQYDVQQIDAJSSjEMMAoGA1UECgwDUFVD
MRAwDgYDVQQLDAdJTkYxNDE2MRMwEQYDVQQDDApVc3VhcmlvIDAxMSgwJgYJKoZI
hvcNAQkBFhl1c2VyMDFAaW5mMTQxNi5wdWMtcmlvLmJyMIIBIjANBgkqhkiG9w0B
AQEFAAOCAQ8AMIIBCgKCAQEAvzUNGfNciZ6QYwqcHcy7oYe5C6QeLGPeb1gxHeN/
Z+JeWlf5/N21XQeXaWg8Ii/X610IjJ4NYb87/6gA6OWitR/h/DgOAQbqZAL9q7ln
Nt2xqF4PBbW3W4vm+IrgXnTYMtUnYZdgvPICT12cmsVKvP+7LIp8aK+GcxSyu0zI
fhhSrMfJh3SmSWSDod1+no3oxv/iGb4Zs92wB92U3LHtf/XJrOoTwZtvof0WtJhU
FbtY/6EG//+GvHFyzln6WHBcRv++/6QQLWlajyE+/3035eUBVNiGVeevLi7vT0ZP
np4U+TqpRlHWVfu02WrKc4FHV+skblwrwm370/rjsbC2EwIDAQABo3sweTAJBgNV
HRMEAjAAMCwGCWCGSAGG+EIBDQQfFh1PcGVuU1NMIEdlbmVyYXRlZCBDZXJ0aWZp
Y2F0ZTAdBgNVHQ4EFgQU5iOOnQ8g9xGbDhTiNx/P5q9axdcwHwYDVR0jBBgwFoAU
I4E7wxkrlZnZyuo7a/4cJHPCgo4wDQYJKoZIhvcNAQELBQADggEBADs/OUs4kOU+
g8PXKL1EdoyC95/+s1dqnjRugs7FwqJKqXaL/Lnay2qmrS4dpj+26HiWVpyjugb2
Ave+y2zkVGFKJnepG5vZnv4k4W6S09f6SHCfdyXRfn9PA2om++aBv9WOsR2L06au
0uxBSZKlAKxraISSKEg1iYDmxfWmAV0MIweMu227ucjPNyoU9BKw7+Kqbsl27rkx
c42YKRLtVcJ4pN54OLfMDuDnzy4dVwC3LnYwlddggPUAJNsxLFspJ4p6z6pehOFR
vIIxafaopt4K2FeWuNdnY81Yww12iEjKnqrIZZX7FJZAeSnd0ZDezveyF0drmkBb
JnGWzx4dSy4=
-----END CERTIFICATE-----
